target datalayout = "e-m:e-p270:32:32-p271:32:32-p272:64:64-i64:64-i128:128-f80:128-n8:16:32:64-S128"
target triple = "x86_64-pc-linux-gnu"

%class.JfrSymbolTable = type <{ ptr, ptr, ptr, ptr, ptr, ptr, i64, i8, [7 x i8] }>
%class.JfrBasicHashtableEntry = type { ptr, ptr, i64 }

; Function Attrs: mustprogress nounwind uwtable
define internal noundef zeroext i1 @_ZL14string_comparePKcS0_(ptr noundef %0, ptr noundef %1) #1 {
  %3 = alloca ptr, align 8
  %4 = alloca ptr, align 8
  %5 = alloca i64, align 8
  store ptr %0, ptr %3, align 8
  store ptr %1, ptr %4, align 8
  %6 = load ptr, ptr %3, align 8
  %7 = call i64 @strlen(ptr noundef %6) #10
  store i64 %7, ptr %5, align 8
  %8 = load ptr, ptr %3, align 8
  %9 = load ptr, ptr %4, align 8
  %10 = load i64, ptr %5, align 8
  %11 = call i32 @strncmp(ptr noundef %8, ptr noundef %9, i64 noundef %10) #10
  %12 = icmp eq i32 %11, 0
  ret i1 %12
}

; Function Attrs: mustprogress nounwind uwtable
define linkonce_odr hidden noundef ptr @_ZNK22JfrBasicHashtableEntryIPKcE7literalEv(ptr noundef nonnull align 8 dereferenceable(24) %0) #1 comdat align 2 {
  %2 = alloca ptr, align 8
  store ptr %0, ptr %2, align 8
  %3 = load ptr, ptr %2, align 8
  %4 = getelementptr inbounds %class.JfrBasicHashtableEntry, ptr %3, i32 0, i32 1
  %5 = load ptr, ptr %4, align 8
  ret ptr %5
}

; Function Attrs: mustprogress nounwind uwtable
define hidden noundef zeroext i1 @_ZN14JfrSymbolTable9on_equalsEmPK9ListEntryIPKcmE(ptr noundef nonnull align 8 dereferenceable(57) %0, i64 noundef %1, ptr noundef %2) #1 align 2 {
  %4 = alloca ptr, align 8
  %5 = alloca i64, align 8
  %6 = alloca ptr, align 8
  store ptr %0, ptr %4, align 8
  store i64 %1, ptr %5, align 8
  store ptr %2, ptr %6, align 8
  %7 = load ptr, ptr %4, align 8
  %8 = getelementptr inbounds %class.JfrSymbolTable, ptr %7, i32 0, i32 5
  %9 = load ptr, ptr %8, align 8
  %10 = load ptr, ptr %6, align 8
  %11 = call noundef ptr @_ZNK22JfrBasicHashtableEntryIPKcE7literalEv(ptr noundef nonnull align 8 dereferenceable(24) %10)
  %12 = call noundef zeroext i1 @_ZL14string_comparePKcS0_(ptr noundef %9, ptr noundef %11)
  ret i1 %12
}