; Function Attrs: mustprogress nofree nounwind willreturn memory(read, inaccessiblemem: none) uwtable
define hidden noundef zeroext i1 @_ZN14JfrSymbolTable9on_equalsEmPK9ListEntryIPKcmE(ptr nocapture noundef nonnull readonly align 8 dereferenceable(57) %0, i64 noundef %1, ptr nocapture noundef readonly %2) local_unnamed_addr #5 align 2 {
  %4 = getelementptr inbounds i8, ptr %0, i64 40
  %5 = load ptr, ptr %4, align 8
  %6 = getelementptr inbounds i8, ptr %2, i64 8
  %7 = load ptr, ptr %6, align 8
  %8 = tail call i64 @strlen(ptr noundef nonnull readonly dereferenceable(1) %5) #16
  %9 = tail call i32 @strncmp(ptr noundef readonly %5, ptr noundef readonly %7, i64 noundef %8) #16
  %10 = icmp eq i32 %9, 0
  ret i1 %10
}